target datalayout = "e-m:e-p270:32:32-p271:32:32-p272:64:64-i64:64-i128:128-f80:128-n8:16:32:64-S128"
target triple = "x86_64-unknown-linux-gnu"

%"class.IlmThread_3_2::ThreadPool" = type { ptr, ptr }

@_ZZN13IlmThread_3_210ThreadPool16globalThreadPoolEvE11gThreadPool = internal global %"class.IlmThread_3_2::ThreadPool" zeroinitializer, align 8
@_ZGVZN13IlmThread_3_210ThreadPool16globalThreadPoolEvE11gThreadPool = internal global i64 0, align 8
@__dso_handle = external hidden global i8
@_ZN13IlmThread_3_210ThreadPoolC1Ej = unnamed_addr alias void (ptr, i32), ptr @_ZN13IlmThread_3_210ThreadPoolC2Ej
@_ZN13IlmThread_3_210ThreadPoolD1Ev = unnamed_addr alias void (ptr), ptr @_ZN13IlmThread_3_210ThreadPoolD2Ev

; Function Attrs: mustprogress uwtable
define noundef nonnull align 8 dereferenceable(16) ptr @_ZN13IlmThread_3_210ThreadPool16globalThreadPoolEv() #0 align 2 personality ptr @__gxx_personality_v0 {
entry:
  %exn.slot = alloca ptr, align 8
  %ehselector.slot = alloca i32, align 4
  %0 = load atomic i8, ptr @_ZGVZN13IlmThread_3_210ThreadPool16globalThreadPoolEvE11gThreadPool acquire, align 8
  %guard.uninitialized = icmp eq i8 %0, 0
  br i1 %guard.uninitialized, label %init.check, label %init.end, !prof !6

init.check:                                       ; preds = %entry
  %1 = call i32 @__cxa_guard_acquire(ptr @_ZGVZN13IlmThread_3_210ThreadPool16globalThreadPoolEvE11gThreadPool) #8
  %tobool = icmp ne i32 %1, 0
  br i1 %tobool, label %init, label %init.end

init:                                             ; preds = %init.check
  invoke void @_ZN13IlmThread_3_210ThreadPoolC1Ej(ptr noundef nonnull align 8 dereferenceable(16) @_ZZN13IlmThread_3_210ThreadPool16globalThreadPoolEvE11gThreadPool, i32 noundef 0)
          to label %invoke.cont unwind label %lpad

invoke.cont:                                      ; preds = %init
  %2 = call i32 @__cxa_atexit(ptr @_ZN13IlmThread_3_210ThreadPoolD1Ev, ptr @_ZZN13IlmThread_3_210ThreadPool16globalThreadPoolEvE11gThreadPool, ptr @__dso_handle) #8
  call void @__cxa_guard_release(ptr @_ZGVZN13IlmThread_3_210ThreadPool16globalThreadPoolEvE11gThreadPool) #8
  br label %init.end

init.end:                                         ; preds = %invoke.cont, %init.check, %entry
  ret ptr @_ZZN13IlmThread_3_210ThreadPool16globalThreadPoolEvE11gThreadPool

lpad:                                             ; preds = %init
  %3 = landingpad { ptr, i32 }
          cleanup
  %4 = extractvalue { ptr, i32 } %3, 0
  store ptr %4, ptr %exn.slot, align 8
  %5 = extractvalue { ptr, i32 } %3, 1
  store i32 %5, ptr %ehselector.slot, align 4
  call void @__cxa_guard_abort(ptr @_ZGVZN13IlmThread_3_210ThreadPool16globalThreadPoolEvE11gThreadPool) #8
  br label %eh.resume

eh.resume:                                        ; preds = %lpad
  %exn = load ptr, ptr %exn.slot, align 8
  %sel = load i32, ptr %ehselector.slot, align 4
  %lpad.val = insertvalue { ptr, i32 } poison, ptr %exn, 0
  %lpad.val1 = insertvalue { ptr, i32 } %lpad.val, i32 %sel, 1
  resume { ptr, i32 } %lpad.val1
}

; Function Attrs: mustprogress uwtable
define void @_ZN13IlmThread_3_210ThreadPool13addGlobalTaskEPNS_4TaskE(ptr noundef %task) #0 align 2 {
entry:
  %task.addr = alloca ptr, align 8
  store ptr %task, ptr %task.addr, align 8
  %call = call noundef nonnull align 8 dereferenceable(16) ptr @_ZN13IlmThread_3_210ThreadPool16globalThreadPoolEv()
  %0 = load ptr, ptr %task.addr, align 8
  call void @_ZN13IlmThread_3_210ThreadPool7addTaskEPNS_4TaskE(ptr noundef nonnull align 8 dereferenceable(16) %call, ptr noundef %0)
  ret void
}