; Function Attrs: mustprogress uwtable
define void @_ZN13IlmThread_3_210ThreadPool13addGlobalTaskEPNS_4TaskE(ptr noundef %task) local_unnamed_addr #0 align 2 personality ptr @__gxx_personality_v0 {
entry:
  %0 = load atomic i8, ptr @_ZGVZN13IlmThread_3_210ThreadPool16globalThreadPoolEvE11gThreadPool acquire, align 8
  %guard.uninitialized.i = icmp eq i8 %0, 0
  br i1 %guard.uninitialized.i, label %init.check.i, label %_ZN13IlmThread_3_210ThreadPool16globalThreadPoolEv.exit, !prof !53

init.check.i:                                     ; preds = %entry
  %1 = tail call i32 @__cxa_guard_acquire(ptr nonnull @_ZGVZN13IlmThread_3_210ThreadPool16globalThreadPoolEvE11gThreadPool) #23
  %tobool.not.i = icmp eq i32 %1, 0
  br i1 %tobool.not.i, label %_ZN13IlmThread_3_210ThreadPool16globalThreadPoolEv.exit, label %init.i

init.i:                                           ; preds = %init.check.i
  invoke void @_ZN13IlmThread_3_210ThreadPoolC1Ej(ptr noundef nonnull align 8 dereferenceable(16) @_ZZN13IlmThread_3_210ThreadPool16globalThreadPoolEvE11gThreadPool, i32 noundef 0)
          to label %invoke.cont.i unwind label %lpad.i

invoke.cont.i:                                    ; preds = %init.i
  %2 = tail call i32 @__cxa_atexit(ptr nonnull @_ZN13IlmThread_3_210ThreadPoolD1Ev, ptr nonnull @_ZZN13IlmThread_3_210ThreadPool16globalThreadPoolEvE11gThreadPool, ptr nonnull @__dso_handle) #23
  tail call void @__cxa_guard_release(ptr nonnull @_ZGVZN13IlmThread_3_210ThreadPool16globalThreadPoolEvE11gThreadPool) #23
  br label %_ZN13IlmThread_3_210ThreadPool16globalThreadPoolEv.exit

lpad.i:                                           ; preds = %init.i
  %3 = landingpad { ptr, i32 }
          cleanup
  tail call void @__cxa_guard_abort(ptr nonnull @_ZGVZN13IlmThread_3_210ThreadPool16globalThreadPoolEvE11gThreadPool) #23
  resume { ptr, i32 } %3

_ZN13IlmThread_3_210ThreadPool16globalThreadPoolEv.exit: ; preds = %entry, %init.check.i, %invoke.cont.i
  tail call void @_ZN13IlmThread_3_210ThreadPool7addTaskEPNS_4TaskE(ptr noundef nonnull align 8 dereferenceable(16) @_ZZN13IlmThread_3_210ThreadPool16globalThreadPoolEvE11gThreadPool, ptr noundef %task)
  ret void
}